; Function Attrs: mustprogress nounwind uwtable
define dso_local noundef i32 @_ZNK4llvm3opt8OptTable11findNearestENS_9StringRefERNSt7__cxx1112basic_stringIcSt11char_traitsIcESaIcEEEjjjj(ptr noundef nonnull readonly align 8 captures(none) dereferenceable(88) %0, ptr %1, i64 %2, ptr noundef nonnull align 8 dereferenceable(32) %3, i32 noundef %4, i32 noundef %5, i32 noundef %6, i32 noundef %7) local_unnamed_addr #1 align 2 {
  %9 = alloca %"class.std::function", align 8
  %.sroa.2.0.insert.ext = zext i32 %5 to i64
  %.sroa.2.0.insert.shift = shl nuw i64 %.sroa.2.0.insert.ext, 32
  %.sroa.0.0.insert.ext = zext i32 %4 to i64
  %.sroa.0.0.insert.insert = or disjoint i64 %.sroa.2.0.insert.shift, %.sroa.0.0.insert.ext
  %10 = getelementptr inbounds nuw i8, ptr %9, i64 16
  %11 = getelementptr inbounds nuw i8, ptr %9, i64 24
  %12 = getelementptr inbounds nuw i8, ptr %9, i64 8
  store i64 0, ptr %12, align 8
  store i64 %.sroa.0.0.insert.insert, ptr %9, align 8
  store ptr @"_ZNSt17_Function_handlerIFbRKN4llvm3opt8OptTable4InfoEEZNKS2_11findNearestENS0_9StringRefERNSt7__cxx1112basic_stringIcSt11char_traitsIcESaIcEEEjjjjE3$_0E9_M_invokeERKSt9_Any_dataS5_", ptr %11, align 8
  store ptr @"_ZNSt17_Function_handlerIFbRKN4llvm3opt8OptTable4InfoEEZNKS2_11findNearestENS0_9StringRefERNSt7__cxx1112basic_stringIcSt11char_traitsIcESaIcEEEjjjjE3$_0E10_M_managerERSt9_Any_dataRKSH_St18_Manager_operation", ptr %10, align 8
  %13 = call noundef i32 @_ZNK4llvm3opt8OptTable19internalFindNearestENS_9StringRefERNSt7__cxx1112basic_stringIcSt11char_traitsIcESaIcEEEjjSt8functionIFbRKNS1_4InfoEEE(ptr noundef nonnull align 8 dereferenceable(88) %0, ptr %1, i64 %2, ptr noundef nonnull align 8 dereferenceable(32) %3, i32 noundef %6, i32 noundef %7, ptr noundef nonnull %9)
  %14 = load ptr, ptr %10, align 8
  %.not.i.i = icmp eq ptr %14, null
  br i1 %.not.i.i, label %_ZNSt8functionIFbRKN4llvm3opt8OptTable4InfoEEED2Ev.exit, label %15

15:                                               ; preds = %8
  %16 = call noundef zeroext i1 %14(ptr noundef nonnull align 8 dereferenceable(32) %9, ptr noundef nonnull align 8 dereferenceable(32) %9, i32 noundef 3) #22
  br label %_ZNSt8functionIFbRKN4llvm3opt8OptTable4InfoEEED2Ev.exit

_ZNSt8functionIFbRKN4llvm3opt8OptTable4InfoEEED2Ev.exit: ; preds = %8, %15
  ret i32 %13
}